#include <math.h>
#include <stdio.h>
#include <stdlib.h>
#include <string.h>
#include <iostream>
using namespace std;

/*
 * shuzunixu(p).cpp
 *
 *  Created on: 2012-12-12
 *      Author: 1200012791??
 *      ???????????????????
 */
int main() {
	int a[101];//??1?????
	int n = 0, i = 0, temp = 0;//??3??????n?????????
	int *p = a;//??1????????a
	cin >> n;//??n
	for (i = 0; i < n; i++)//????
		cin >> *(p + i);//?????????
	for (i = 0; i < n / 2; i++) {//????????????
		temp = *(p + i);//??????
		*(p + i) = *(p + n - i - 1);
		*(p + n - i - 1) = temp;
	}
	cout << *p;//?????????
	for (i = 1; i < n; i++)//????
		cout << ' ' << *(p + i);//??????????????
	return 0;
}
